; Function Attrs: mustprogress nofree norecurse nosync nounwind memory(argmem: readwrite) uwtable
define internal fastcc void @_ZN32pxrInternal_v0_24__pxrReserved__21pxr_double_conversionL12FillDigits64EmNS0_6VectorIcEEPi(i64 noundef %0, ptr nocapture %1, ptr nocapture noundef %2) unnamed_addr #0 {
  %4 = urem i64 %0, 10000000
  %5 = trunc nuw nsw i64 %4 to i32
  %6 = udiv i64 %0, 10000000
  %7 = urem i64 %6, 10000000
  %8 = trunc nuw nsw i64 %7 to i32
  %.not = icmp ult i64 %0, 100000000000000
  br i1 %.not, label %50, label %9

9:                                                ; preds = %3
  %10 = udiv i64 %0, 100000000000000
  %11 = trunc nuw nsw i64 %10 to i32
  br label %.lr.ph.i

.lr.ph.i:                                         ; preds = %9, %.lr.ph.i
  %.029.i = phi i32 [ %13, %.lr.ph.i ], [ %11, %9 ]
  %.02228.i = phi i32 [ %20, %.lr.ph.i ], [ 0, %9 ]
  %12 = urem i32 %.029.i, 10
  %13 = udiv i32 %.029.i, 10
  %14 = trunc nuw nsw i32 %12 to i8
  %15 = or disjoint i8 %14, 48
  %16 = load i32, ptr %2, align 4
  %17 = add nsw i32 %16, %.02228.i
  %18 = sext i32 %17 to i64
  %19 = getelementptr inbounds i8, ptr %1, i64 %18
  store i8 %15, ptr %19, align 1
  %20 = add nuw nsw i32 %.02228.i, 1
  %.not.i = icmp ult i32 %.029.i, 10
  br i1 %.not.i, label %._crit_edge.i, label %.lr.ph.i, !llvm.loop !4

._crit_edge.i:                                    ; preds = %.lr.ph.i
  %21 = load i32, ptr %2, align 4
  %.02030.i = add i32 %21, %.02228.i
  %22 = icmp slt i32 %21, %.02030.i
  br i1 %22, label %.lr.ph34.preheader.i, label %_ZN32pxrInternal_v0_24__pxrReserved__21pxr_double_conversionL12FillDigits32EjNS0_6VectorIcEEPi.exit

.lr.ph34.preheader.i:                             ; preds = %._crit_edge.i
  %23 = sext i32 %.02030.i to i64
  %24 = sext i32 %21 to i64
  br label %.lr.ph34.i

.lr.ph34.i:                                       ; preds = %.lr.ph34.i, %.lr.ph34.preheader.i
  %indvars.iv36.i = phi i64 [ %24, %.lr.ph34.preheader.i ], [ %indvars.iv.next37.i, %.lr.ph34.i ]
  %indvars.iv.i = phi i64 [ %23, %.lr.ph34.preheader.i ], [ %indvars.iv.next.i, %.lr.ph34.i ]
  %25 = getelementptr inbounds i8, ptr %1, i64 %indvars.iv36.i
  %26 = load i8, ptr %25, align 1
  %27 = getelementptr inbounds i8, ptr %1, i64 %indvars.iv.i
  %28 = load i8, ptr %27, align 1
  store i8 %28, ptr %25, align 1
  store i8 %26, ptr %27, align 1
  %indvars.iv.next37.i = add nsw i64 %indvars.iv36.i, 1
  %indvars.iv.next.i = add nsw i64 %indvars.iv.i, -1
  %29 = icmp slt i64 %indvars.iv.next37.i, %indvars.iv.next.i
  br i1 %29, label %.lr.ph34.i, label %._crit_edge35.loopexit.i, !llvm.loop !6

._crit_edge35.loopexit.i:                         ; preds = %.lr.ph34.i
  %.pre.i = load i32, ptr %2, align 4
  br label %_ZN32pxrInternal_v0_24__pxrReserved__21pxr_double_conversionL12FillDigits32EjNS0_6VectorIcEEPi.exit

_ZN32pxrInternal_v0_24__pxrReserved__21pxr_double_conversionL12FillDigits32EjNS0_6VectorIcEEPi.exit: ; preds = %._crit_edge.i, %._crit_edge35.loopexit.i
  %.pre.i.pn = phi i32 [ %.pre.i, %._crit_edge35.loopexit.i ], [ %21, %._crit_edge.i ]
  %.pre-phi.i = add nsw i32 %.pre.i.pn, %20
  store i32 %.pre-phi.i, ptr %2, align 4
  br label %.lr.ph.i45

.lr.ph.i45:                                       ; preds = %.lr.ph.i45, %_ZN32pxrInternal_v0_24__pxrReserved__21pxr_double_conversionL12FillDigits32EjNS0_6VectorIcEEPi.exit
  %.0.in10.i = phi i32 [ %.0.i, %.lr.ph.i45 ], [ 7, %_ZN32pxrInternal_v0_24__pxrReserved__21pxr_double_conversionL12FillDigits32EjNS0_6VectorIcEEPi.exit ]
  %.089.i = phi i32 [ %37, %.lr.ph.i45 ], [ %8, %_ZN32pxrInternal_v0_24__pxrReserved__21pxr_double_conversionL12FillDigits32EjNS0_6VectorIcEEPi.exit ]
  %.0.i = add nsw i32 %.0.in10.i, -1
  %30 = urem i32 %.089.i, 10
  %31 = trunc nuw nsw i32 %30 to i8
  %32 = or disjoint i8 %31, 48
  %33 = load i32, ptr %2, align 4
  %34 = add nsw i32 %33, %.0.i
  %35 = sext i32 %34 to i64
  %36 = getelementptr inbounds i8, ptr %1, i64 %35
  store i8 %32, ptr %36, align 1
  %37 = udiv i32 %.089.i, 10
  %38 = icmp ugt i32 %.0.in10.i, 1
  br i1 %38, label %.lr.ph.i45, label %_ZN32pxrInternal_v0_24__pxrReserved__21pxr_double_conversionL23FillDigits32FixedLengthEjiNS0_6VectorIcEEPi.exit, !llvm.loop !7

_ZN32pxrInternal_v0_24__pxrReserved__21pxr_double_conversionL23FillDigits32FixedLengthEjiNS0_6VectorIcEEPi.exit: ; preds = %.lr.ph.i45
  %39 = load i32, ptr %2, align 4
  %40 = add nsw i32 %39, 7
  store i32 %40, ptr %2, align 4
  br label %.lr.ph.i47

.lr.ph.i47:                                       ; preds = %.lr.ph.i47, %_ZN32pxrInternal_v0_24__pxrReserved__21pxr_double_conversionL23FillDigits32FixedLengthEjiNS0_6VectorIcEEPi.exit
  %.0.in10.i48 = phi i32 [ %.0.i50, %.lr.ph.i47 ], [ 7, %_ZN32pxrInternal_v0_24__pxrReserved__21pxr_double_conversionL23FillDigits32FixedLengthEjiNS0_6VectorIcEEPi.exit ]
  %.089.i49 = phi i32 [ %48, %.lr.ph.i47 ], [ %5, %_ZN32pxrInternal_v0_24__pxrReserved__21pxr_double_conversionL23FillDigits32FixedLengthEjiNS0_6VectorIcEEPi.exit ]
  %.0.i50 = add nsw i32 %.0.in10.i48, -1
  %41 = urem i32 %.089.i49, 10
  %42 = trunc nuw nsw i32 %41 to i8
  %43 = or disjoint i8 %42, 48
  %44 = load i32, ptr %2, align 4
  %45 = add nsw i32 %44, %.0.i50
  %46 = sext i32 %45 to i64
  %47 = getelementptr inbounds i8, ptr %1, i64 %46
  store i8 %43, ptr %47, align 1
  %48 = udiv i32 %.089.i49, 10
  %49 = icmp ugt i32 %.0.in10.i48, 1
  br i1 %49, label %.lr.ph.i47, label %_ZN32pxrInternal_v0_24__pxrReserved__21pxr_double_conversionL12FillDigits32EjNS0_6VectorIcEEPi.exit96.sink.split, !llvm.loop !7

50:                                               ; preds = %3
  %.not44 = icmp eq i64 %7, 0
  br i1 %.not44, label %78, label %.lr.ph.i54

.lr.ph.i54:                                       ; preds = %50, %.lr.ph.i54
  %.029.i55 = phi i32 [ %52, %.lr.ph.i54 ], [ %8, %50 ]
  %.02228.i56 = phi i32 [ %59, %.lr.ph.i54 ], [ 0, %50 ]
  %51 = urem i32 %.029.i55, 10
  %52 = udiv i32 %.029.i55, 10
  %53 = trunc nuw nsw i32 %51 to i8
  %54 = or disjoint i8 %53, 48
  %55 = load i32, ptr %2, align 4
  %56 = add nsw i32 %55, %.02228.i56
  %57 = sext i32 %56 to i64
  %58 = getelementptr inbounds i8, ptr %1, i64 %57
  store i8 %54, ptr %58, align 1
  %59 = add nuw nsw i32 %.02228.i56, 1
  %.not.i57 = icmp ult i32 %.029.i55, 10
  br i1 %.not.i57, label %._crit_edge.i58, label %.lr.ph.i54, !llvm.loop !4

._crit_edge.i58:                                  ; preds = %.lr.ph.i54
  %60 = load i32, ptr %2, align 4
  %.02030.i60 = add i32 %60, %.02228.i56
  %61 = icmp slt i32 %60, %.02030.i60
  br i1 %61, label %.lr.ph34.preheader.i62, label %_ZN32pxrInternal_v0_24__pxrReserved__21pxr_double_conversionL12FillDigits32EjNS0_6VectorIcEEPi.exit71

.lr.ph34.preheader.i62:                           ; preds = %._crit_edge.i58
  %62 = sext i32 %.02030.i60 to i64
  %63 = sext i32 %60 to i64
  br label %.lr.ph34.i63

.lr.ph34.i63:                                     ; preds = %.lr.ph34.i63, %.lr.ph34.preheader.i62
  %indvars.iv36.i64 = phi i64 [ %63, %.lr.ph34.preheader.i62 ], [ %indvars.iv.next37.i66, %.lr.ph34.i63 ]
  %indvars.iv.i65 = phi i64 [ %62, %.lr.ph34.preheader.i62 ], [ %indvars.iv.next.i67, %.lr.ph34.i63 ]
  %64 = getelementptr inbounds i8, ptr %1, i64 %indvars.iv36.i64
  %65 = load i8, ptr %64, align 1
  %66 = getelementptr inbounds i8, ptr %1, i64 %indvars.iv.i65
  %67 = load i8, ptr %66, align 1
  store i8 %67, ptr %64, align 1
  store i8 %65, ptr %66, align 1
  %indvars.iv.next37.i66 = add nsw i64 %indvars.iv36.i64, 1
  %indvars.iv.next.i67 = add nsw i64 %indvars.iv.i65, -1
  %68 = icmp slt i64 %indvars.iv.next37.i66, %indvars.iv.next.i67
  br i1 %68, label %.lr.ph34.i63, label %._crit_edge35.loopexit.i68, !llvm.loop !6

._crit_edge35.loopexit.i68:                       ; preds = %.lr.ph34.i63
  %.pre.i69 = load i32, ptr %2, align 4
  br label %_ZN32pxrInternal_v0_24__pxrReserved__21pxr_double_conversionL12FillDigits32EjNS0_6VectorIcEEPi.exit71

_ZN32pxrInternal_v0_24__pxrReserved__21pxr_double_conversionL12FillDigits32EjNS0_6VectorIcEEPi.exit71: ; preds = %._crit_edge.i58, %._crit_edge35.loopexit.i68
  %.pre.i69.pn = phi i32 [ %.pre.i69, %._crit_edge35.loopexit.i68 ], [ %60, %._crit_edge.i58 ]
  %.pre-phi.i61 = add nsw i32 %.pre.i69.pn, %59
  store i32 %.pre-phi.i61, ptr %2, align 4
  br label %.lr.ph.i72

.lr.ph.i72:                                       ; preds = %.lr.ph.i72, %_ZN32pxrInternal_v0_24__pxrReserved__21pxr_double_conversionL12FillDigits32EjNS0_6VectorIcEEPi.exit71
  %.0.in10.i73 = phi i32 [ %.0.i75, %.lr.ph.i72 ], [ 7, %_ZN32pxrInternal_v0_24__pxrReserved__21pxr_double_conversionL12FillDigits32EjNS0_6VectorIcEEPi.exit71 ]
  %.089.i74 = phi i32 [ %76, %.lr.ph.i72 ], [ %5, %_ZN32pxrInternal_v0_24__pxrReserved__21pxr_double_conversionL12FillDigits32EjNS0_6VectorIcEEPi.exit71 ]
  %.0.i75 = add nsw i32 %.0.in10.i73, -1
  %69 = urem i32 %.089.i74, 10
  %70 = trunc nuw nsw i32 %69 to i8
  %71 = or disjoint i8 %70, 48
  %72 = load i32, ptr %2, align 4
  %73 = add nsw i32 %72, %.0.i75
  %74 = sext i32 %73 to i64
  %75 = getelementptr inbounds i8, ptr %1, i64 %74
  store i8 %71, ptr %75, align 1
  %76 = udiv i32 %.089.i74, 10
  %77 = icmp ugt i32 %.0.in10.i73, 1
  br i1 %77, label %.lr.ph.i72, label %_ZN32pxrInternal_v0_24__pxrReserved__21pxr_double_conversionL12FillDigits32EjNS0_6VectorIcEEPi.exit96.sink.split, !llvm.loop !7

78:                                               ; preds = %50
  %.not27.i78 = icmp eq i64 %4, 0
  br i1 %.not27.i78, label %._crit_edge.i83, label %.lr.ph.i79

.lr.ph.i79:                                       ; preds = %78, %.lr.ph.i79
  %.029.i80 = phi i32 [ %80, %.lr.ph.i79 ], [ %5, %78 ]
  %.02228.i81 = phi i32 [ %87, %.lr.ph.i79 ], [ 0, %78 ]
  %79 = urem i32 %.029.i80, 10
  %80 = udiv i32 %.029.i80, 10
  %81 = trunc nuw nsw i32 %79 to i8
  %82 = or disjoint i8 %81, 48
  %83 = load i32, ptr %2, align 4
  %84 = add nsw i32 %83, %.02228.i81
  %85 = sext i32 %84 to i64
  %86 = getelementptr inbounds i8, ptr %1, i64 %85
  store i8 %82, ptr %86, align 1
  %87 = add nuw nsw i32 %.02228.i81, 1
  %.not.i82 = icmp ult i32 %.029.i80, 10
  br i1 %.not.i82, label %._crit_edge.i83, label %.lr.ph.i79, !llvm.loop !4

._crit_edge.i83:                                  ; preds = %.lr.ph.i79, %78
  %.022.lcssa.i84 = phi i32 [ 0, %78 ], [ %87, %.lr.ph.i79 ]
  %88 = load i32, ptr %2, align 4
  %89 = add nsw i32 %88, %.022.lcssa.i84
  %.02030.i85 = add nsw i32 %89, -1
  %90 = icmp slt i32 %88, %.02030.i85
  br i1 %90, label %.lr.ph34.preheader.i87, label %_ZN32pxrInternal_v0_24__pxrReserved__21pxr_double_conversionL12FillDigits32EjNS0_6VectorIcEEPi.exit96

.lr.ph34.preheader.i87:                           ; preds = %._crit_edge.i83
  %91 = sext i32 %.02030.i85 to i64
  %92 = sext i32 %88 to i64
  br label %.lr.ph34.i88

.lr.ph34.i88:                                     ; preds = %.lr.ph34.i88, %.lr.ph34.preheader.i87
  %indvars.iv36.i89 = phi i64 [ %92, %.lr.ph34.preheader.i87 ], [ %indvars.iv.next37.i91, %.lr.ph34.i88 ]
  %indvars.iv.i90 = phi i64 [ %91, %.lr.ph34.preheader.i87 ], [ %indvars.iv.next.i92, %.lr.ph34.i88 ]
  %93 = getelementptr inbounds i8, ptr %1, i64 %indvars.iv36.i89
  %94 = load i8, ptr %93, align 1
  %95 = getelementptr inbounds i8, ptr %1, i64 %indvars.iv.i90
  %96 = load i8, ptr %95, align 1
  store i8 %96, ptr %93, align 1
  store i8 %94, ptr %95, align 1
  %indvars.iv.next37.i91 = add nsw i64 %indvars.iv36.i89, 1
  %indvars.iv.next.i92 = add nsw i64 %indvars.iv.i90, -1
  %97 = icmp slt i64 %indvars.iv.next37.i91, %indvars.iv.next.i92
  br i1 %97, label %.lr.ph34.i88, label %_ZN32pxrInternal_v0_24__pxrReserved__21pxr_double_conversionL12FillDigits32EjNS0_6VectorIcEEPi.exit96.sink.split, !llvm.loop !6

_ZN32pxrInternal_v0_24__pxrReserved__21pxr_double_conversionL12FillDigits32EjNS0_6VectorIcEEPi.exit96.sink.split: ; preds = %.lr.ph.i47, %.lr.ph.i72, %.lr.ph34.i88
  %.022.lcssa.i84.sink = phi i32 [ %.022.lcssa.i84, %.lr.ph34.i88 ], [ 7, %.lr.ph.i72 ], [ 7, %.lr.ph.i47 ]
  %.pre.i94 = load i32, ptr %2, align 4
  %.pre41.i95 = add nsw i32 %.pre.i94, %.022.lcssa.i84.sink
  br label %_ZN32pxrInternal_v0_24__pxrReserved__21pxr_double_conversionL12FillDigits32EjNS0_6VectorIcEEPi.exit96

_ZN32pxrInternal_v0_24__pxrReserved__21pxr_double_conversionL12FillDigits32EjNS0_6VectorIcEEPi.exit96: ; preds = %_ZN32pxrInternal_v0_24__pxrReserved__21pxr_double_conversionL12FillDigits32EjNS0_6VectorIcEEPi.exit96.sink.split, %._crit_edge.i83
  %.sink = phi i32 [ %89, %._crit_edge.i83 ], [ %.pre41.i95, %_ZN32pxrInternal_v0_24__pxrReserved__21pxr_double_conversionL12FillDigits32EjNS0_6VectorIcEEPi.exit96.sink.split ]
  store i32 %.sink, ptr %2, align 4
  ret void
}